target datalayout = "e-m:e-p270:32:32-p271:32:32-p272:64:64-i64:64-i128:128-f80:128-n8:16:32:64-S128"
target triple = "x86_64-pc-linux-gnu"

; Function Attrs: alwaysinline nounwind willreturn memory(none) uwtable
define internal zeroext i8 @av_clip_uint8_c(i32 noundef %0) #3 {
  %2 = alloca i8, align 1
  %3 = alloca i32, align 4
  store i32 %0, ptr %3, align 4, !tbaa !4
  %4 = load i32, ptr %3, align 4, !tbaa !4
  %5 = and i32 %4, -256
  %6 = icmp ne i32 %5, 0
  br i1 %6, label %7, label %12

7:                                                ; preds = %1
  %8 = load i32, ptr %3, align 4, !tbaa !4
  %9 = xor i32 %8, -1
  %10 = ashr i32 %9, 31
  %11 = trunc i32 %10 to i8
  store i8 %11, ptr %2, align 1
  br label %15

12:                                               ; preds = %1
  %13 = load i32, ptr %3, align 4, !tbaa !4
  %14 = trunc i32 %13 to i8
  store i8 %14, ptr %2, align 1
  br label %15

15:                                               ; preds = %12, %7
  %16 = load i8, ptr %2, align 1
  ret i8 %16
}

; Function Attrs: nounwind uwtable
define void @ff_non_maximum_suppression(i32 noundef %0, i32 noundef %1, ptr noundef %2, i32 noundef %3, ptr noundef %4, i32 noundef %5, ptr noundef %6, i32 noundef %7) #0 {
  %9 = alloca i32, align 4
  %10 = alloca i32, align 4
  %11 = alloca ptr, align 8
  %12 = alloca i32, align 4
  %13 = alloca ptr, align 8
  %14 = alloca i32, align 4
  %15 = alloca ptr, align 8
  %16 = alloca i32, align 4
  %17 = alloca i32, align 4
  %18 = alloca i32, align 4
  store i32 %0, ptr %9, align 4, !tbaa !4
  store i32 %1, ptr %10, align 4, !tbaa !4
  store ptr %2, ptr %11, align 8, !tbaa !11
  store i32 %3, ptr %12, align 4, !tbaa !4
  store ptr %4, ptr %13, align 8, !tbaa !11
  store i32 %5, ptr %14, align 4, !tbaa !4
  store ptr %6, ptr %15, align 8, !tbaa !8
  store i32 %7, ptr %16, align 4, !tbaa !4
  call void @llvm.lifetime.start.p0(i64 4, ptr %17) #4
  call void @llvm.lifetime.start.p0(i64 4, ptr %18) #4
  store i32 1, ptr %18, align 4, !tbaa !4
  br label %19

19:                                               ; preds = %262, %8
  %20 = load i32, ptr %18, align 4, !tbaa !4
  %21 = load i32, ptr %10, align 4, !tbaa !4
  %22 = sub nsw i32 %21, 1
  %23 = icmp slt i32 %20, %22
  br i1 %23, label %24, label %265

24:                                               ; preds = %19
  %25 = load i32, ptr %12, align 4, !tbaa !4
  %26 = load ptr, ptr %11, align 8, !tbaa !11
  %27 = sext i32 %25 to i64
  %28 = getelementptr inbounds i8, ptr %26, i64 %27
  store ptr %28, ptr %11, align 8, !tbaa !11
  %29 = load i32, ptr %14, align 4, !tbaa !4
  %30 = load ptr, ptr %13, align 8, !tbaa !11
  %31 = sext i32 %29 to i64
  %32 = getelementptr inbounds i8, ptr %30, i64 %31
  store ptr %32, ptr %13, align 8, !tbaa !11
  %33 = load i32, ptr %16, align 4, !tbaa !4
  %34 = load ptr, ptr %15, align 8, !tbaa !8
  %35 = sext i32 %33 to i64
  %36 = getelementptr inbounds i16, ptr %34, i64 %35
  store ptr %36, ptr %15, align 8, !tbaa !8
  store i32 1, ptr %17, align 4, !tbaa !4
  br label %37

37:                                               ; preds = %258, %24
  %38 = load i32, ptr %17, align 4, !tbaa !4
  %39 = load i32, ptr %9, align 4, !tbaa !4
  %40 = sub nsw i32 %39, 1
  %41 = icmp slt i32 %38, %40
  br i1 %41, label %42, label %261

42:                                               ; preds = %37
  %43 = load ptr, ptr %13, align 8, !tbaa !11
  %44 = load i32, ptr %17, align 4, !tbaa !4
  %45 = sext i32 %44 to i64
  %46 = getelementptr inbounds i8, ptr %43, i64 %45
  %47 = load i8, ptr %46, align 1, !tbaa !13
  %48 = sext i8 %47 to i32
  switch i32 %48, label %257 [
    i32 0, label %49
    i32 1, label %101
    i32 2, label %153
    i32 3, label %205
  ]

49:                                               ; preds = %42
  br label %50

50:                                               ; preds = %49
  %51 = load ptr, ptr %15, align 8, !tbaa !8
  %52 = load i32, ptr %17, align 4, !tbaa !4
  %53 = sext i32 %52 to i64
  %54 = getelementptr inbounds i16, ptr %51, i64 %53
  %55 = load i16, ptr %54, align 2, !tbaa !14
  %56 = zext i16 %55 to i32
  %57 = load ptr, ptr %15, align 8, !tbaa !8
  %58 = load i32, ptr %16, align 4, !tbaa !4
  %59 = mul nsw i32 1, %58
  %60 = load i32, ptr %17, align 4, !tbaa !4
  %61 = add nsw i32 %59, %60
  %62 = add nsw i32 %61, -1
  %63 = sext i32 %62 to i64
  %64 = getelementptr inbounds i16, ptr %57, i64 %63
  %65 = load i16, ptr %64, align 2, !tbaa !14
  %66 = zext i16 %65 to i32
  %67 = icmp sgt i32 %56, %66
  br i1 %67, label %68, label %98

68:                                               ; preds = %50
  %69 = load ptr, ptr %15, align 8, !tbaa !8
  %70 = load i32, ptr %17, align 4, !tbaa !4
  %71 = sext i32 %70 to i64
  %72 = getelementptr inbounds i16, ptr %69, i64 %71
  %73 = load i16, ptr %72, align 2, !tbaa !14
  %74 = zext i16 %73 to i32
  %75 = load ptr, ptr %15, align 8, !tbaa !8
  %76 = load i32, ptr %16, align 4, !tbaa !4
  %77 = mul nsw i32 -1, %76
  %78 = load i32, ptr %17, align 4, !tbaa !4
  %79 = add nsw i32 %77, %78
  %80 = add nsw i32 %79, 1
  %81 = sext i32 %80 to i64
  %82 = getelementptr inbounds i16, ptr %75, i64 %81
  %83 = load i16, ptr %82, align 2, !tbaa !14
  %84 = zext i16 %83 to i32
  %85 = icmp sgt i32 %74, %84
  br i1 %85, label %86, label %98

86:                                               ; preds = %68
  %87 = load ptr, ptr %15, align 8, !tbaa !8
  %88 = load i32, ptr %17, align 4, !tbaa !4
  %89 = sext i32 %88 to i64
  %90 = getelementptr inbounds i16, ptr %87, i64 %89
  %91 = load i16, ptr %90, align 2, !tbaa !14
  %92 = zext i16 %91 to i32
  %93 = call zeroext i8 @av_clip_uint8_c(i32 noundef %92) #5
  %94 = load ptr, ptr %11, align 8, !tbaa !11
  %95 = load i32, ptr %17, align 4, !tbaa !4
  %96 = sext i32 %95 to i64
  %97 = getelementptr inbounds i8, ptr %94, i64 %96
  store i8 %93, ptr %97, align 1, !tbaa !13
  br label %98

98:                                               ; preds = %86, %68, %50
  br label %99

99:                                               ; preds = %98
  br label %100

100:                                              ; preds = %99
  br label %257

101:                                              ; preds = %42
  br label %102

102:                                              ; preds = %101
  %103 = load ptr, ptr %15, align 8, !tbaa !8
  %104 = load i32, ptr %17, align 4, !tbaa !4
  %105 = sext i32 %104 to i64
  %106 = getelementptr inbounds i16, ptr %103, i64 %105
  %107 = load i16, ptr %106, align 2, !tbaa !14
  %108 = zext i16 %107 to i32
  %109 = load ptr, ptr %15, align 8, !tbaa !8
  %110 = load i32, ptr %16, align 4, !tbaa !4
  %111 = mul nsw i32 -1, %110
  %112 = load i32, ptr %17, align 4, !tbaa !4
  %113 = add nsw i32 %111, %112
  %114 = add nsw i32 %113, -1
  %115 = sext i32 %114 to i64
  %116 = getelementptr inbounds i16, ptr %109, i64 %115
  %117 = load i16, ptr %116, align 2, !tbaa !14
  %118 = zext i16 %117 to i32
  %119 = icmp sgt i32 %108, %118
  br i1 %119, label %120, label %150

120:                                              ; preds = %102
  %121 = load ptr, ptr %15, align 8, !tbaa !8
  %122 = load i32, ptr %17, align 4, !tbaa !4
  %123 = sext i32 %122 to i64
  %124 = getelementptr inbounds i16, ptr %121, i64 %123
  %125 = load i16, ptr %124, align 2, !tbaa !14
  %126 = zext i16 %125 to i32
  %127 = load ptr, ptr %15, align 8, !tbaa !8
  %128 = load i32, ptr %16, align 4, !tbaa !4
  %129 = mul nsw i32 1, %128
  %130 = load i32, ptr %17, align 4, !tbaa !4
  %131 = add nsw i32 %129, %130
  %132 = add nsw i32 %131, 1
  %133 = sext i32 %132 to i64
  %134 = getelementptr inbounds i16, ptr %127, i64 %133
  %135 = load i16, ptr %134, align 2, !tbaa !14
  %136 = zext i16 %135 to i32
  %137 = icmp sgt i32 %126, %136
  br i1 %137, label %138, label %150

138:                                              ; preds = %120
  %139 = load ptr, ptr %15, align 8, !tbaa !8
  %140 = load i32, ptr %17, align 4, !tbaa !4
  %141 = sext i32 %140 to i64
  %142 = getelementptr inbounds i16, ptr %139, i64 %141
  %143 = load i16, ptr %142, align 2, !tbaa !14
  %144 = zext i16 %143 to i32
  %145 = call zeroext i8 @av_clip_uint8_c(i32 noundef %144) #5
  %146 = load ptr, ptr %11, align 8, !tbaa !11
  %147 = load i32, ptr %17, align 4, !tbaa !4
  %148 = sext i32 %147 to i64
  %149 = getelementptr inbounds i8, ptr %146, i64 %148
  store i8 %145, ptr %149, align 1, !tbaa !13
  br label %150

150:                                              ; preds = %138, %120, %102
  br label %151

151:                                              ; preds = %150
  br label %152

152:                                              ; preds = %151
  br label %257

153:                                              ; preds = %42
  br label %154

154:                                              ; preds = %153
  %155 = load ptr, ptr %15, align 8, !tbaa !8
  %156 = load i32, ptr %17, align 4, !tbaa !4
  %157 = sext i32 %156 to i64
  %158 = getelementptr inbounds i16, ptr %155, i64 %157
  %159 = load i16, ptr %158, align 2, !tbaa !14
  %160 = zext i16 %159 to i32
  %161 = load ptr, ptr %15, align 8, !tbaa !8
  %162 = load i32, ptr %16, align 4, !tbaa !4
  %163 = mul nsw i32 0, %162
  %164 = load i32, ptr %17, align 4, !tbaa !4
  %165 = add nsw i32 %163, %164
  %166 = add nsw i32 %165, -1
  %167 = sext i32 %166 to i64
  %168 = getelementptr inbounds i16, ptr %161, i64 %167
  %169 = load i16, ptr %168, align 2, !tbaa !14
  %170 = zext i16 %169 to i32
  %171 = icmp sgt i32 %160, %170
  br i1 %171, label %172, label %202

172:                                              ; preds = %154
  %173 = load ptr, ptr %15, align 8, !tbaa !8
  %174 = load i32, ptr %17, align 4, !tbaa !4
  %175 = sext i32 %174 to i64
  %176 = getelementptr inbounds i16, ptr %173, i64 %175
  %177 = load i16, ptr %176, align 2, !tbaa !14
  %178 = zext i16 %177 to i32
  %179 = load ptr, ptr %15, align 8, !tbaa !8
  %180 = load i32, ptr %16, align 4, !tbaa !4
  %181 = mul nsw i32 0, %180
  %182 = load i32, ptr %17, align 4, !tbaa !4
  %183 = add nsw i32 %181, %182
  %184 = add nsw i32 %183, 1
  %185 = sext i32 %184 to i64
  %186 = getelementptr inbounds i16, ptr %179, i64 %185
  %187 = load i16, ptr %186, align 2, !tbaa !14
  %188 = zext i16 %187 to i32
  %189 = icmp sgt i32 %178, %188
  br i1 %189, label %190, label %202

190:                                              ; preds = %172
  %191 = load ptr, ptr %15, align 8, !tbaa !8
  %192 = load i32, ptr %17, align 4, !tbaa !4
  %193 = sext i32 %192 to i64
  %194 = getelementptr inbounds i16, ptr %191, i64 %193
  %195 = load i16, ptr %194, align 2, !tbaa !14
  %196 = zext i16 %195 to i32
  %197 = call zeroext i8 @av_clip_uint8_c(i32 noundef %196) #5
  %198 = load ptr, ptr %11, align 8, !tbaa !11
  %199 = load i32, ptr %17, align 4, !tbaa !4
  %200 = sext i32 %199 to i64
  %201 = getelementptr inbounds i8, ptr %198, i64 %200
  store i8 %197, ptr %201, align 1, !tbaa !13
  br label %202

202:                                              ; preds = %190, %172, %154
  br label %203

203:                                              ; preds = %202
  br label %204

204:                                              ; preds = %203
  br label %257

205:                                              ; preds = %42
  br label %206

206:                                              ; preds = %205
  %207 = load ptr, ptr %15, align 8, !tbaa !8
  %208 = load i32, ptr %17, align 4, !tbaa !4
  %209 = sext i32 %208 to i64
  %210 = getelementptr inbounds i16, ptr %207, i64 %209
  %211 = load i16, ptr %210, align 2, !tbaa !14
  %212 = zext i16 %211 to i32
  %213 = load ptr, ptr %15, align 8, !tbaa !8
  %214 = load i32, ptr %16, align 4, !tbaa !4
  %215 = mul nsw i32 -1, %214
  %216 = load i32, ptr %17, align 4, !tbaa !4
  %217 = add nsw i32 %215, %216
  %218 = add nsw i32 %217, 0
  %219 = sext i32 %218 to i64
  %220 = getelementptr inbounds i16, ptr %213, i64 %219
  %221 = load i16, ptr %220, align 2, !tbaa !14
  %222 = zext i16 %221 to i32
  %223 = icmp sgt i32 %212, %222
  br i1 %223, label %224, label %254

224:                                              ; preds = %206
  %225 = load ptr, ptr %15, align 8, !tbaa !8
  %226 = load i32, ptr %17, align 4, !tbaa !4
  %227 = sext i32 %226 to i64
  %228 = getelementptr inbounds i16, ptr %225, i64 %227
  %229 = load i16, ptr %228, align 2, !tbaa !14
  %230 = zext i16 %229 to i32
  %231 = load ptr, ptr %15, align 8, !tbaa !8
  %232 = load i32, ptr %16, align 4, !tbaa !4
  %233 = mul nsw i32 1, %232
  %234 = load i32, ptr %17, align 4, !tbaa !4
  %235 = add nsw i32 %233, %234
  %236 = add nsw i32 %235, 0
  %237 = sext i32 %236 to i64
  %238 = getelementptr inbounds i16, ptr %231, i64 %237
  %239 = load i16, ptr %238, align 2, !tbaa !14
  %240 = zext i16 %239 to i32
  %241 = icmp sgt i32 %230, %240
  br i1 %241, label %242, label %254

242:                                              ; preds = %224
  %243 = load ptr, ptr %15, align 8, !tbaa !8
  %244 = load i32, ptr %17, align 4, !tbaa !4
  %245 = sext i32 %244 to i64
  %246 = getelementptr inbounds i16, ptr %243, i64 %245
  %247 = load i16, ptr %246, align 2, !tbaa !14
  %248 = zext i16 %247 to i32
  %249 = call zeroext i8 @av_clip_uint8_c(i32 noundef %248) #5
  %250 = load ptr, ptr %11, align 8, !tbaa !11
  %251 = load i32, ptr %17, align 4, !tbaa !4
  %252 = sext i32 %251 to i64
  %253 = getelementptr inbounds i8, ptr %250, i64 %252
  store i8 %249, ptr %253, align 1, !tbaa !13
  br label %254

254:                                              ; preds = %242, %224, %206
  br label %255

255:                                              ; preds = %254
  br label %256

256:                                              ; preds = %255
  br label %257

257:                                              ; preds = %42, %256, %204, %152, %100
  br label %258

258:                                              ; preds = %257
  %259 = load i32, ptr %17, align 4, !tbaa !4
  %260 = add nsw i32 %259, 1
  store i32 %260, ptr %17, align 4, !tbaa !4
  br label %37, !llvm.loop !33

261:                                              ; preds = %37
  br label %262

262:                                              ; preds = %261
  %263 = load i32, ptr %18, align 4, !tbaa !4
  %264 = add nsw i32 %263, 1
  store i32 %264, ptr %18, align 4, !tbaa !4
  br label %19, !llvm.loop !34

265:                                              ; preds = %19
  call void @llvm.lifetime.end.p0(i64 4, ptr %18) #4
  call void @llvm.lifetime.end.p0(i64 4, ptr %17) #4
  ret void
}