; Function Attrs: nofree norecurse nosync nounwind memory(argmem: readwrite) uwtable
define void @ff_non_maximum_suppression(i32 noundef %0, i32 noundef %1, ptr noundef writeonly captures(none) %2, i32 noundef %3, ptr noundef readonly captures(none) %4, i32 noundef %5, ptr noundef readonly captures(none) %6, i32 noundef %7) local_unnamed_addr #0 {
  %9 = icmp sgt i32 %1, 2
  br i1 %9, label %.lr.ph93, label %._crit_edge94

.lr.ph93:                                         ; preds = %8
  %10 = sext i32 %3 to i64
  %11 = sext i32 %5 to i64
  %12 = sext i32 %7 to i64
  %13 = icmp sgt i32 %0, 2
  %14 = xor i32 %7, -1
  br i1 %13, label %.lr.ph.us.preheader, label %._crit_edge94

.lr.ph.us.preheader:                              ; preds = %.lr.ph93
  %15 = add nsw i32 %0, -1
  %wide.trip.count = zext i32 %15 to i64
  %16 = add nsw i32 %1, -2
  br label %.lr.ph.us

.lr.ph.us:                                        ; preds = %.lr.ph.us.preheader, %._crit_edge.us
  %.091.us = phi i32 [ %66, %._crit_edge.us ], [ 1, %.lr.ph.us.preheader ]
  %.07090.us = phi ptr [ %17, %._crit_edge.us ], [ %2, %.lr.ph.us.preheader ]
  %.07189.us = phi ptr [ %19, %._crit_edge.us ], [ %6, %.lr.ph.us.preheader ]
  %.07288.us = phi ptr [ %18, %._crit_edge.us ], [ %4, %.lr.ph.us.preheader ]
  %17 = getelementptr inbounds i8, ptr %.07090.us, i64 %10
  %18 = getelementptr inbounds i8, ptr %.07288.us, i64 %11
  %19 = getelementptr inbounds i16, ptr %.07189.us, i64 %12
  %invariant.gep.us = getelementptr i8, ptr %19, i64 2
  %invariant.gep83.us = getelementptr i8, ptr %19, i64 -2
  %invariant.gep = getelementptr i16, ptr %19, i64 %12
  %invariant.gep98 = getelementptr i16, ptr %invariant.gep.us, i64 %12
  %invariant.gep100 = getelementptr i16, ptr %invariant.gep83.us, i64 %12
  br label %20

20:                                               ; preds = %.lr.ph.us, %65
  %indvars.iv = phi i64 [ 1, %.lr.ph.us ], [ %indvars.iv.next, %65 ]
  %21 = getelementptr inbounds nuw i8, ptr %18, i64 %indvars.iv
  %22 = load i8, ptr %21, align 1, !tbaa !4
  switch i8 %22, label %65 [
    i8 0, label %54
    i8 1, label %42
    i8 2, label %32
    i8 3, label %23
  ]

23:                                               ; preds = %20
  %24 = getelementptr inbounds nuw i16, ptr %19, i64 %indvars.iv
  %25 = load i16, ptr %24, align 2, !tbaa !7
  %26 = getelementptr inbounds nuw i16, ptr %.07189.us, i64 %indvars.iv
  %27 = load i16, ptr %26, align 2, !tbaa !7
  %28 = icmp ugt i16 %25, %27
  br i1 %28, label %29, label %65

29:                                               ; preds = %23
  %gep = getelementptr i16, ptr %invariant.gep, i64 %indvars.iv
  %30 = load i16, ptr %gep, align 2, !tbaa !7
  %31 = icmp ugt i16 %25, %30
  br i1 %31, label %.sink.split, label %65

32:                                               ; preds = %20
  %33 = getelementptr inbounds nuw i16, ptr %19, i64 %indvars.iv
  %34 = load i16, ptr %33, align 2, !tbaa !7
  %35 = getelementptr i8, ptr %33, i64 -2
  %36 = load i16, ptr %35, align 2, !tbaa !7
  %37 = icmp ugt i16 %34, %36
  br i1 %37, label %38, label %65

38:                                               ; preds = %32
  %39 = getelementptr inbounds nuw i8, ptr %33, i64 2
  %40 = load i16, ptr %39, align 2, !tbaa !7
  %41 = icmp ugt i16 %34, %40
  br i1 %41, label %.sink.split, label %65

42:                                               ; preds = %20
  %43 = getelementptr inbounds nuw i16, ptr %19, i64 %indvars.iv
  %44 = load i16, ptr %43, align 2, !tbaa !7
  %45 = trunc nuw nsw i64 %indvars.iv to i32
  %46 = add i32 %45, %14
  %47 = sext i32 %46 to i64
  %48 = getelementptr inbounds i16, ptr %19, i64 %47
  %49 = load i16, ptr %48, align 2, !tbaa !7
  %50 = icmp ugt i16 %44, %49
  br i1 %50, label %51, label %65

51:                                               ; preds = %42
  %gep99 = getelementptr i16, ptr %invariant.gep98, i64 %indvars.iv
  %52 = load i16, ptr %gep99, align 2, !tbaa !7
  %53 = icmp ugt i16 %44, %52
  br i1 %53, label %.sink.split, label %65

54:                                               ; preds = %20
  %55 = getelementptr inbounds nuw i16, ptr %19, i64 %indvars.iv
  %56 = load i16, ptr %55, align 2, !tbaa !7
  %gep101 = getelementptr i16, ptr %invariant.gep100, i64 %indvars.iv
  %57 = load i16, ptr %gep101, align 2, !tbaa !7
  %58 = icmp ugt i16 %56, %57
  br i1 %58, label %59, label %65

59:                                               ; preds = %54
  %60 = sub nsw i64 %indvars.iv, %12
  %gep86.us = getelementptr i16, ptr %invariant.gep.us, i64 %60
  %61 = load i16, ptr %gep86.us, align 2, !tbaa !7
  %62 = icmp ugt i16 %56, %61
  br i1 %62, label %.sink.split, label %65

.sink.split:                                      ; preds = %59, %51, %38, %29
  %.sink = phi i16 [ %25, %29 ], [ %34, %38 ], [ %44, %51 ], [ %56, %59 ]
  %.not.i.us = icmp ult i16 %.sink, 256
  %63 = trunc i16 %.sink to i8
  %.0.i.us = select i1 %.not.i.us, i8 %63, i8 -1
  %64 = getelementptr inbounds nuw i8, ptr %17, i64 %indvars.iv
  store i8 %.0.i.us, ptr %64, align 1, !tbaa !4
  br label %65

65:                                               ; preds = %.sink.split, %59, %54, %51, %42, %38, %32, %29, %23, %20
  %indvars.iv.next = add nuw nsw i64 %indvars.iv, 1
  %exitcond.not = icmp eq i64 %indvars.iv.next, %wide.trip.count
  br i1 %exitcond.not, label %._crit_edge.us, label %20, !llvm.loop !26

._crit_edge.us:                                   ; preds = %65
  %66 = add nuw nsw i32 %.091.us, 1
  %exitcond97.not = icmp eq i32 %.091.us, %16
  br i1 %exitcond97.not, label %._crit_edge94, label %.lr.ph.us, !llvm.loop !27

._crit_edge94:                                    ; preds = %._crit_edge.us, %.lr.ph93, %8
  ret void
}